target datalayout = "e-m:e-p270:32:32-p271:32:32-p272:64:64-i64:64-i128:128-f80:128-n8:16:32:64-S128"
target triple = "x86_64-pc-linux-gnu"

%struct.darktable_t = type { %struct.dt_codepath_t, i32, i32, ptr, ptr, ptr, ptr, ptr, ptr, ptr, ptr, ptr, ptr, ptr, ptr, ptr, ptr, ptr, ptr, ptr, ptr, ptr, ptr, ptr, ptr, ptr, ptr, ptr, ptr, ptr, [64 x %struct.dt_pthread_mutex_t], %struct.dt_pthread_mutex_t, %struct.dt_pthread_mutex_t, %struct.dt_pthread_mutex_t, %struct.dt_pthread_mutex_t, %struct.dt_pthread_mutex_t, ptr, ptr, ptr, ptr, ptr, ptr, ptr, ptr, ptr, ptr, ptr, ptr, ptr, %struct.dt_lua_state_t, ptr, double, ptr, i32, [47 x i32], i32, i32, ptr, ptr, %struct.dt_sys_resources_t, %struct.dt_backthumb_t, %struct.dt_gimp_t }
%struct.dt_codepath_t = type { i8, [3 x i8] }
%struct.dt_pthread_mutex_t = type { %union.pthread_mutex_t }
%union.pthread_mutex_t = type { %struct.__pthread_mutex_s }
%struct.__pthread_mutex_s = type { i32, i32, i32, i32, i32, i16, i16, %struct.__pthread_internal_list }
%struct.__pthread_internal_list = type { ptr, ptr }
%struct.dt_lua_state_t = type { i32 }
%struct.dt_sys_resources_t = type { i64, i64, ptr, ptr, i32 }
%struct.dt_backthumb_t = type { double, double, i32, i32, i32, i32 }
%struct.dt_gimp_t = type { i32, ptr, ptr, i32, i32 }
%struct._GList = type { ptr, ptr, ptr }

@darktable = external global %struct.darktable_t, align 8
@.str = private unnamed_addr constant [41 x i8] c"[sql] %s:%d, function %s(): prepare \22%s\22\00", align 1
@.str.1 = private unnamed_addr constant [115 x i8] c"generated/home/dtcxzyw/WorkSpace/Projects/compilers/llvm-opt-benchmark/bench/darktable/darktable/src/common/tags.c\00", align 1
@stderr = external global ptr, align 8
@.str.3 = private unnamed_addr constant [53 x i8] c"sqlite3 error: %s:%d, function %s(), query \22%s\22: %s\0A\00", align 1
@.str.35 = private unnamed_addr constant [4 x i8] c"%d,\00", align 1
@.str.36 = private unnamed_addr constant [72 x i8] c"SELECT imgid FROM main.tagged_images WHERE tagid = %d AND imgid IN (%s)\00", align 1
@__FUNCTION__.dt_tag_get_images_from_list = private unnamed_addr constant [28 x i8] c"dt_tag_get_images_from_list\00", align 1

; Function Attrs: nounwind uwtable
define ptr @dt_tag_get_images_from_list(ptr noundef %0, i32 noundef %1) #0 {
  %3 = alloca ptr, align 8
  %4 = alloca i32, align 4
  %5 = alloca ptr, align 8
  %6 = alloca ptr, align 8
  %7 = alloca ptr, align 8
  %8 = alloca ptr, align 8
  %9 = alloca ptr, align 8
  %10 = alloca i32, align 4
  %11 = alloca i32, align 4
  store ptr %0, ptr %3, align 8, !tbaa !59
  store i32 %1, ptr %4, align 4, !tbaa !52
  call void @llvm.lifetime.start.p0(i64 8, ptr %5) #8
  store ptr null, ptr %5, align 8, !tbaa !59
  call void @llvm.lifetime.start.p0(i64 8, ptr %6) #8
  store ptr null, ptr %6, align 8, !tbaa !6
  call void @llvm.lifetime.start.p0(i64 8, ptr %7) #8
  %12 = load ptr, ptr %3, align 8, !tbaa !59
  store ptr %12, ptr %7, align 8, !tbaa !59
  br label %13

13:                                               ; preds = %31, %2
  %14 = load ptr, ptr %7, align 8, !tbaa !59
  %15 = icmp ne ptr %14, null
  br i1 %15, label %17, label %16

16:                                               ; preds = %13
  call void @llvm.lifetime.end.p0(i64 8, ptr %7) #8
  br label %33

17:                                               ; preds = %13
  %18 = load ptr, ptr %7, align 8, !tbaa !59
  %19 = getelementptr inbounds nuw %struct._GList, ptr %18, i32 0, i32 0
  %20 = load ptr, ptr %19, align 8, !tbaa !60
  %21 = ptrtoint ptr %20 to i64
  %22 = trunc i64 %21 to i32
  call void (ptr, ptr, ...) @dt_util_str_cat(ptr noundef %6, ptr noundef @.str.35, i32 noundef %22)
  br label %23

23:                                               ; preds = %17
  %24 = load ptr, ptr %7, align 8, !tbaa !59
  %25 = icmp ne ptr %24, null
  br i1 %25, label %26, label %30

26:                                               ; preds = %23
  %27 = load ptr, ptr %7, align 8, !tbaa !59
  %28 = getelementptr inbounds nuw %struct._GList, ptr %27, i32 0, i32 1
  %29 = load ptr, ptr %28, align 8, !tbaa !64
  br label %31

30:                                               ; preds = %23
  br label %31

31:                                               ; preds = %30, %26
  %32 = phi ptr [ %29, %26 ], [ null, %30 ]
  store ptr %32, ptr %7, align 8, !tbaa !59
  br label %13

33:                                               ; preds = %16
  %34 = load ptr, ptr %6, align 8, !tbaa !6
  %35 = icmp ne ptr %34, null
  br i1 %35, label %36, label %93

36:                                               ; preds = %33
  %37 = load ptr, ptr %6, align 8, !tbaa !6
  %38 = load ptr, ptr %6, align 8, !tbaa !6
  %39 = call i64 @strlen(ptr noundef %38) #9
  %40 = sub i64 %39, 1
  %41 = getelementptr inbounds nuw i8, ptr %37, i64 %40
  store i8 0, ptr %41, align 1, !tbaa !13
  call void @llvm.lifetime.start.p0(i64 8, ptr %8) #8
  call void @llvm.lifetime.start.p0(i64 8, ptr %9) #8
  %42 = load i32, ptr %4, align 4, !tbaa !52
  %43 = load ptr, ptr %6, align 8, !tbaa !6
  %44 = call noalias ptr (ptr, ...) @g_strdup_printf(ptr noundef @.str.36, i32 noundef %42, ptr noundef %43)
  store ptr %44, ptr %9, align 8, !tbaa !6
  br label %45

45:                                               ; preds = %36
  br label %46

46:                                               ; preds = %45
  %47 = load i32, ptr getelementptr inbounds nuw (%struct.darktable_t, ptr @darktable, i32 0, i32 2), align 8, !tbaa !14
  %48 = and i32 256, %47
  %49 = icmp ne i32 %48, 0
  br i1 %49, label %50, label %57

50:                                               ; preds = %46
  %51 = load i32, ptr getelementptr inbounds nuw (%struct.darktable_t, ptr @darktable, i32 0, i32 2), align 8, !tbaa !14
  %52 = xor i32 %51, -1
  %53 = and i32 0, %52
  %54 = icmp ne i32 %53, 0
  br i1 %54, label %57, label %55

55:                                               ; preds = %50
  %56 = load ptr, ptr %9, align 8, !tbaa !6
  call void (ptr, ...) @dt_print_ext(ptr noundef @.str, ptr noundef @.str.1, i32 noundef 1181, ptr noundef @__FUNCTION__.dt_tag_get_images_from_list, ptr noundef %56)
  br label %57

57:                                               ; preds = %55, %50, %46
  br label %58

58:                                               ; preds = %57
  br label %59

59:                                               ; preds = %58
  call void @llvm.lifetime.start.p0(i64 4, ptr %10) #8
  %60 = load ptr, ptr getelementptr inbounds nuw (%struct.darktable_t, ptr @darktable, i32 0, i32 18), align 8, !tbaa !51
  %61 = call ptr @dt_database_get(ptr noundef %60)
  %62 = load ptr, ptr %9, align 8, !tbaa !6
  %63 = call i32 @sqlite3_prepare_v2(ptr noundef %61, ptr noundef %62, i32 noundef -1, ptr noundef %8, ptr noundef null)
  store i32 %63, ptr %10, align 4, !tbaa !52
  %64 = load i32, ptr %10, align 4, !tbaa !52
  %65 = icmp ne i32 %64, 0
  br i1 %65, label %66, label %73

66:                                               ; preds = %59
  %67 = load ptr, ptr @stderr, align 8, !tbaa !53
  %68 = load ptr, ptr %9, align 8, !tbaa !6
  %69 = load ptr, ptr getelementptr inbounds nuw (%struct.darktable_t, ptr @darktable, i32 0, i32 18), align 8, !tbaa !51
  %70 = call ptr @dt_database_get(ptr noundef %69)
  %71 = call ptr @sqlite3_errmsg(ptr noundef %70)
  %72 = call i32 (ptr, ptr, ...) @fprintf(ptr noundef %67, ptr noundef @.str.3, ptr noundef @.str.1, i32 noundef 1181, ptr noundef @__FUNCTION__.dt_tag_get_images_from_list, ptr noundef %68, ptr noundef %71) #8
  br label %73

73:                                               ; preds = %66, %59
  call void @llvm.lifetime.end.p0(i64 4, ptr %10) #8
  br label %74

74:                                               ; preds = %73
  br label %75

75:                                               ; preds = %74
  br label %76

76:                                               ; preds = %80, %75
  %77 = load ptr, ptr %8, align 8, !tbaa !55
  %78 = call i32 @sqlite3_step(ptr noundef %77)
  %79 = icmp eq i32 %78, 100
  br i1 %79, label %80, label %88

80:                                               ; preds = %76
  call void @llvm.lifetime.start.p0(i64 4, ptr %11) #8
  %81 = load ptr, ptr %8, align 8, !tbaa !55
  %82 = call i32 @sqlite3_column_int(ptr noundef %81, i32 noundef 0)
  store i32 %82, ptr %11, align 4, !tbaa !52
  %83 = load ptr, ptr %5, align 8, !tbaa !59
  %84 = load i32, ptr %11, align 4, !tbaa !52
  %85 = sext i32 %84 to i64
  %86 = inttoptr i64 %85 to ptr
  %87 = call ptr @g_list_prepend(ptr noundef %83, ptr noundef %86)
  store ptr %87, ptr %5, align 8, !tbaa !59
  call void @llvm.lifetime.end.p0(i64 4, ptr %11) #8
  br label %76

88:                                               ; preds = %76
  %89 = load ptr, ptr %8, align 8, !tbaa !55
  %90 = call i32 @sqlite3_finalize(ptr noundef %89)
  %91 = load ptr, ptr %9, align 8, !tbaa !6
  call void @g_free(ptr noundef %91)
  %92 = load ptr, ptr %6, align 8, !tbaa !6
  call void @g_free(ptr noundef %92)
  call void @llvm.lifetime.end.p0(i64 8, ptr %9) #8
  call void @llvm.lifetime.end.p0(i64 8, ptr %8) #8
  br label %93

93:                                               ; preds = %88, %33
  %94 = load ptr, ptr %5, align 8, !tbaa !59
  %95 = call ptr @g_list_reverse(ptr noundef %94)
  call void @llvm.lifetime.end.p0(i64 8, ptr %6) #8
  call void @llvm.lifetime.end.p0(i64 8, ptr %5) #8
  ret ptr %95
}