; Function Attrs: nounwind uwtable
define ptr @dt_tag_get_images_from_list(ptr noundef readonly %0, i32 noundef %1) local_unnamed_addr #0 {
  %3 = alloca ptr, align 8
  %4 = alloca ptr, align 8
  call void @llvm.lifetime.start.p0(i64 8, ptr nonnull %3) #11
  store ptr null, ptr %3, align 8, !tbaa !57
  %.not18 = icmp eq ptr %0, null
  br i1 %.not18, label %._crit_edge.thread, label %.lr.ph

._crit_edge:                                      ; preds = %.lr.ph
  %.pre = load ptr, ptr %3, align 8, !tbaa !57
  %.not15 = icmp eq ptr %.pre, null
  br i1 %.not15, label %._crit_edge.thread, label %10

.lr.ph:                                           ; preds = %2, %.lr.ph
  %.01319 = phi ptr [ %9, %.lr.ph ], [ %0, %2 ]
  %5 = load ptr, ptr %.01319, align 8, !tbaa !58
  %6 = ptrtoint ptr %5 to i64
  %7 = trunc i64 %6 to i32
  call void (ptr, ptr, ...) @dt_util_str_cat(ptr noundef nonnull %3, ptr noundef nonnull @.str.35, i32 noundef %7) #11
  %8 = getelementptr inbounds nuw i8, ptr %.01319, i64 8
  %9 = load ptr, ptr %8, align 8, !tbaa !62
  %.not = icmp eq ptr %9, null
  br i1 %.not, label %._crit_edge, label %.lr.ph

10:                                               ; preds = %._crit_edge
  %11 = call i64 @strlen(ptr noundef nonnull dereferenceable(1) %.pre) #13
  %12 = getelementptr i8, ptr %.pre, i64 %11
  %13 = getelementptr i8, ptr %12, i64 -1
  store i8 0, ptr %13, align 1, !tbaa !6
  call void @llvm.lifetime.start.p0(i64 8, ptr nonnull %4) #11
  %14 = load ptr, ptr %3, align 8, !tbaa !57
  %15 = call noalias ptr (ptr, ...) @g_strdup_printf(ptr noundef nonnull @.str.36, i32 noundef %1, ptr noundef %14) #11
  %16 = load i32, ptr getelementptr inbounds nuw (i8, ptr @darktable, i64 8), align 8, !tbaa !9
  %17 = and i32 %16, 256
  %.not16 = icmp eq i32 %17, 0
  br i1 %.not16, label %19, label %18

18:                                               ; preds = %10
  call void (ptr, ...) @dt_print_ext(ptr noundef nonnull @.str, ptr noundef nonnull @.str.1, i32 noundef 1181, ptr noundef nonnull @__FUNCTION__.dt_tag_get_images_from_list, ptr noundef %15) #11
  br label %19

19:                                               ; preds = %18, %10
  %20 = load ptr, ptr getelementptr inbounds nuw (i8, ptr @darktable, i64 136), align 8, !tbaa !49
  %21 = call ptr @dt_database_get(ptr noundef %20) #11
  %22 = call i32 @sqlite3_prepare_v2(ptr noundef %21, ptr noundef %15, i32 noundef -1, ptr noundef nonnull %4, ptr noundef null) #11
  %.not17 = icmp eq i32 %22, 0
  br i1 %.not17, label %29, label %23

23:                                               ; preds = %19
  %24 = load ptr, ptr @stderr, align 8, !tbaa !50
  %25 = load ptr, ptr getelementptr inbounds nuw (i8, ptr @darktable, i64 136), align 8, !tbaa !49
  %26 = call ptr @dt_database_get(ptr noundef %25) #11
  %27 = call ptr @sqlite3_errmsg(ptr noundef %26) #11
  %28 = call i32 (ptr, ptr, ...) @fprintf(ptr noundef %24, ptr noundef nonnull @.str.3, ptr noundef nonnull @.str.1, i32 noundef 1181, ptr noundef nonnull @__FUNCTION__.dt_tag_get_images_from_list, ptr noundef %15, ptr noundef %27) #12
  br label %29

29:                                               ; preds = %23, %19
  %30 = load ptr, ptr %4, align 8, !tbaa !52
  %31 = call i32 @sqlite3_step(ptr noundef %30) #11
  %32 = icmp eq i32 %31, 100
  br i1 %32, label %.lr.ph22, label %._crit_edge23

.lr.ph22:                                         ; preds = %29, %.lr.ph22
  %.120 = phi ptr [ %37, %.lr.ph22 ], [ null, %29 ]
  %33 = load ptr, ptr %4, align 8, !tbaa !52
  %34 = call i32 @sqlite3_column_int(ptr noundef %33, i32 noundef 0) #11
  %35 = sext i32 %34 to i64
  %36 = inttoptr i64 %35 to ptr
  %37 = call ptr @g_list_prepend(ptr noundef %.120, ptr noundef %36) #11
  %38 = load ptr, ptr %4, align 8, !tbaa !52
  %39 = call i32 @sqlite3_step(ptr noundef %38) #11
  %40 = icmp eq i32 %39, 100
  br i1 %40, label %.lr.ph22, label %._crit_edge23

._crit_edge23:                                    ; preds = %.lr.ph22, %29
  %.1.lcssa = phi ptr [ null, %29 ], [ %37, %.lr.ph22 ]
  %41 = load ptr, ptr %4, align 8, !tbaa !52
  %42 = call i32 @sqlite3_finalize(ptr noundef %41) #11
  call void @g_free(ptr noundef %15) #11
  %43 = load ptr, ptr %3, align 8, !tbaa !57
  call void @g_free(ptr noundef %43) #11
  call void @llvm.lifetime.end.p0(i64 8, ptr nonnull %4) #11
  br label %._crit_edge.thread

._crit_edge.thread:                               ; preds = %2, %._crit_edge23, %._crit_edge
  %.0 = phi ptr [ %.1.lcssa, %._crit_edge23 ], [ null, %._crit_edge ], [ null, %2 ]
  %44 = call ptr @g_list_reverse(ptr noundef %.0) #11
  call void @llvm.lifetime.end.p0(i64 8, ptr nonnull %3) #11
  ret ptr %44
}